target datalayout = "e-m:e-p270:32:32-p271:32:32-p272:64:64-i64:64-i128:128-f80:128-n8:16:32:64-S128"
target triple = "x86_64-pc-linux-gnu"

%struct.CodePointList3 = type { i32, [3 x i32] }
%struct.CaseFold_11_Type = type { i32, %struct.CodePointList3 }
%struct.OnigEncodingTypeST = type { ptr, ptr, i32, i32, ptr, ptr, ptr, ptr, ptr, ptr, ptr, ptr, ptr, ptr, ptr, ptr, ptr, i32, i32 }

; Function Attrs: inlinehint nounwind sspstrong uwtable
define internal i32 @bits_of(i32 noundef %0, i32 noundef %1) #3 {
  %3 = alloca i32, align 4
  %4 = alloca i32, align 4
  store i32 %0, ptr %3, align 4, !tbaa !7
  store i32 %1, ptr %4, align 4, !tbaa !7
  %5 = load i32, ptr %3, align 4, !tbaa !7
  %6 = load i32, ptr %4, align 4, !tbaa !7
  %7 = sub i32 2, %6
  %8 = mul i32 %7, 7
  %9 = lshr i32 %5, %8
  %10 = and i32 %9, 127
  ret i32 %10
}

; Function Attrs: nounwind sspstrong uwtable
define internal i32 @code1_equal(i32 noundef %0, i32 noundef %1) #0 {
  %3 = alloca i32, align 4
  %4 = alloca i32, align 4
  %5 = alloca i32, align 4
  store i32 %0, ptr %4, align 4, !tbaa !7
  store i32 %1, ptr %5, align 4, !tbaa !7
  %6 = load i32, ptr %4, align 4, !tbaa !7
  %7 = load i32, ptr %5, align 4, !tbaa !7
  %8 = icmp ne i32 %6, %7
  br i1 %8, label %9, label %10

9:                                                ; preds = %2
  store i32 0, ptr %3, align 4
  br label %11

10:                                               ; preds = %2
  store i32 1, ptr %3, align 4
  br label %11

11:                                               ; preds = %10, %9
  %12 = load i32, ptr %3, align 4
  ret i32 %12
}

; Function Attrs: inlinehint nounwind sspstrong uwtable
define internal i32 @onigenc_unicode_CaseFold_11_hash(i32 noundef %0) #3 {
  %2 = alloca i32, align 4
  store i32 %0, ptr %2, align 4, !tbaa !7
  %3 = load i32, ptr %2, align 4, !tbaa !7
  %4 = call i32 @bits_of(i32 noundef %3, i32 noundef 2)
  %5 = add i32 %4, 81
  %6 = sext i32 %5 to i64
  %7 = getelementptr [209 x i16], ptr @onigenc_unicode_CaseFold_11_hash.asso_values, i64 0, i64 %6
  %8 = load i16, ptr %7, align 2, !tbaa !14
  %9 = zext i16 %8 to i32
  %10 = load i32, ptr %2, align 4, !tbaa !7
  %11 = call i32 @bits_of(i32 noundef %10, i32 noundef 1)
  %12 = add i32 %11, 2
  %13 = sext i32 %12 to i64
  %14 = getelementptr [209 x i16], ptr @onigenc_unicode_CaseFold_11_hash.asso_values, i64 0, i64 %13
  %15 = load i16, ptr %14, align 2, !tbaa !14
  %16 = zext i16 %15 to i32
  %17 = add i32 %9, %16
  %18 = load i32, ptr %2, align 4, !tbaa !7
  %19 = call i32 @bits_of(i32 noundef %18, i32 noundef 0)
  %20 = sext i32 %19 to i64
  %21 = getelementptr [209 x i16], ptr @onigenc_unicode_CaseFold_11_hash.asso_values, i64 0, i64 %20
  %22 = load i16, ptr %21, align 2, !tbaa !14
  %23 = zext i16 %22 to i32
  %24 = add i32 %17, %23
  ret i32 %24
}

; Function Attrs: nounwind sspstrong uwtable
define internal ptr @onigenc_unicode_CaseFold_11_lookup(i32 noundef %0) #0 {
  %2 = alloca ptr, align 8
  %3 = alloca i32, align 4
  %4 = alloca i32, align 4
  %5 = alloca i16, align 2
  %6 = alloca i32, align 4
  store i32 %0, ptr %3, align 4, !tbaa !7
  %7 = load i32, ptr %3, align 4, !tbaa !7
  %8 = icmp ule i32 %7, 125217
  br i1 %8, label %9, label %47

9:                                                ; preds = %1
  %10 = load i32, ptr %3, align 4, !tbaa !7
  %11 = icmp uge i32 %10, 65
  br i1 %11, label %12, label %47

12:                                               ; preds = %9
  call void @llvm.lifetime.start.p0(i64 4, ptr %4) #5
  %13 = load i32, ptr %3, align 4, !tbaa !7
  %14 = call i32 @onigenc_unicode_CaseFold_11_hash(i32 noundef %13)
  store i32 %14, ptr %4, align 4, !tbaa !7
  %15 = load i32, ptr %4, align 4, !tbaa !7
  %16 = icmp ule i32 %15, 3084
  br i1 %16, label %17, label %43

17:                                               ; preds = %12
  call void @llvm.lifetime.start.p0(i64 2, ptr %5) #5
  %18 = load i32, ptr %4, align 4, !tbaa !7
  %19 = zext i32 %18 to i64
  %20 = getelementptr [3085 x i16], ptr @onigenc_unicode_CaseFold_11_lookup.wordlist, i64 0, i64 %19
  %21 = load i16, ptr %20, align 2, !tbaa !14
  store i16 %21, ptr %5, align 2, !tbaa !14
  %22 = load i16, ptr %5, align 2, !tbaa !14
  %23 = sext i16 %22 to i32
  %24 = icmp sge i32 %23, 0
  br i1 %24, label %25, label %39

25:                                               ; preds = %17
  %26 = load i32, ptr %3, align 4, !tbaa !7
  %27 = load i16, ptr %5, align 2, !tbaa !14
  %28 = sext i16 %27 to i64
  %29 = getelementptr [1530 x %struct.CaseFold_11_Type], ptr @CaseFold_11_Table, i64 0, i64 %28
  %30 = getelementptr inbounds nuw %struct.CaseFold_11_Type, ptr %29, i32 0, i32 0
  %31 = load i32, ptr %30, align 4, !tbaa !41
  %32 = call i32 @code1_equal(i32 noundef %26, i32 noundef %31)
  %33 = icmp ne i32 %32, 0
  br i1 %33, label %34, label %39

34:                                               ; preds = %25
  %35 = load i16, ptr %5, align 2, !tbaa !14
  %36 = sext i16 %35 to i64
  %37 = getelementptr [1530 x %struct.CaseFold_11_Type], ptr @CaseFold_11_Table, i64 0, i64 %36
  %38 = getelementptr inbounds nuw %struct.CaseFold_11_Type, ptr %37, i32 0, i32 1
  store ptr %38, ptr %2, align 8
  store i32 1, ptr %6, align 4
  br label %40

39:                                               ; preds = %25, %17
  store i32 0, ptr %6, align 4
  br label %40

40:                                               ; preds = %39, %34
  call void @llvm.lifetime.end.p0(i64 2, ptr %5) #5
  %41 = load i32, ptr %6, align 4
  switch i32 %41, label %44 [
    i32 0, label %42
  ]

42:                                               ; preds = %40
  br label %43

43:                                               ; preds = %42, %12
  store i32 0, ptr %6, align 4
  br label %44

44:                                               ; preds = %43, %40
  call void @llvm.lifetime.end.p0(i64 4, ptr %4) #5
  %45 = load i32, ptr %6, align 4
  switch i32 %45, label %50 [
    i32 0, label %46
    i32 1, label %48
  ]

46:                                               ; preds = %44
  br label %47

47:                                               ; preds = %46, %9, %1
  store ptr null, ptr %2, align 8
  br label %48

48:                                               ; preds = %47, %44
  %49 = load ptr, ptr %2, align 8
  ret ptr %49

50:                                               ; preds = %44
  unreachable
}

; Function Attrs: nounwind sspstrong uwtable
define dso_local i32 @onigenc_unicode_mbc_case_fold(ptr noundef %0, i32 noundef %1, ptr noundef %2, ptr noundef %3, ptr noundef %4) #0 {
  %6 = alloca i32, align 4
  %7 = alloca ptr, align 8
  %8 = alloca i32, align 4
  %9 = alloca ptr, align 8
  %10 = alloca ptr, align 8
  %11 = alloca ptr, align 8
  %12 = alloca ptr, align 8
  %13 = alloca i32, align 4
  %14 = alloca i32, align 4
  %15 = alloca i32, align 4
  %16 = alloca i32, align 4
  %17 = alloca ptr, align 8
  %18 = alloca i32, align 4
  store ptr %0, ptr %7, align 8, !tbaa !11
  store i32 %1, ptr %8, align 4, !tbaa !7
  store ptr %2, ptr %9, align 8, !tbaa !33
  store ptr %3, ptr %10, align 8, !tbaa !20
  store ptr %4, ptr %11, align 8, !tbaa !20
  call void @llvm.lifetime.start.p0(i64 8, ptr %12) #5
  call void @llvm.lifetime.start.p0(i64 4, ptr %13) #5
  call void @llvm.lifetime.start.p0(i64 4, ptr %14) #5
  call void @llvm.lifetime.start.p0(i64 4, ptr %15) #5
  call void @llvm.lifetime.start.p0(i64 4, ptr %16) #5
  call void @llvm.lifetime.start.p0(i64 8, ptr %17) #5
  %19 = load ptr, ptr %9, align 8, !tbaa !33
  %20 = load ptr, ptr %19, align 8, !tbaa !20
  store ptr %20, ptr %17, align 8, !tbaa !20
  %21 = load ptr, ptr %7, align 8, !tbaa !11
  %22 = getelementptr inbounds nuw %struct.OnigEncodingTypeST, ptr %21, i32 0, i32 5
  %23 = load ptr, ptr %22, align 8, !tbaa !22
  %24 = load ptr, ptr %17, align 8, !tbaa !20
  %25 = load ptr, ptr %10, align 8, !tbaa !20
  %26 = load ptr, ptr %7, align 8, !tbaa !11
  %27 = call i32 %23(ptr noundef %24, ptr noundef %25, ptr noundef %26)
  store i32 %27, ptr %13, align 4, !tbaa !7
  %28 = load ptr, ptr %7, align 8, !tbaa !11
  %29 = getelementptr inbounds nuw %struct.OnigEncodingTypeST, ptr %28, i32 0, i32 2
  %30 = load i32, ptr %29, align 8, !tbaa !25
  %31 = load ptr, ptr %7, align 8, !tbaa !11
  %32 = getelementptr inbounds nuw %struct.OnigEncodingTypeST, ptr %31, i32 0, i32 3
  %33 = load i32, ptr %32, align 4, !tbaa !26
  %34 = icmp eq i32 %30, %33
  br i1 %34, label %35, label %46

35:                                               ; preds = %5
  %36 = load ptr, ptr %17, align 8, !tbaa !20
  %37 = load ptr, ptr %10, align 8, !tbaa !20
  %38 = icmp ult ptr %36, %37
  br i1 %38, label %39, label %43

39:                                               ; preds = %35
  %40 = load ptr, ptr %7, align 8, !tbaa !11
  %41 = getelementptr inbounds nuw %struct.OnigEncodingTypeST, ptr %40, i32 0, i32 3
  %42 = load i32, ptr %41, align 4, !tbaa !26
  br label %44

43:                                               ; preds = %35
  br label %44

44:                                               ; preds = %43, %39
  %45 = phi i32 [ %42, %39 ], [ 0, %43 ]
  br label %51

46:                                               ; preds = %5
  %47 = load ptr, ptr %17, align 8, !tbaa !20
  %48 = load ptr, ptr %10, align 8, !tbaa !20
  %49 = load ptr, ptr %7, align 8, !tbaa !11
  %50 = call i32 @onigenc_mbclen(ptr noundef %47, ptr noundef %48, ptr noundef %49)
  br label %51

51:                                               ; preds = %46, %44
  %52 = phi i32 [ %45, %44 ], [ %50, %46 ]
  store i32 %52, ptr %15, align 4, !tbaa !7
  %53 = load i32, ptr %15, align 4, !tbaa !7
  %54 = load ptr, ptr %9, align 8, !tbaa !33
  %55 = load ptr, ptr %54, align 8, !tbaa !20
  %56 = sext i32 %53 to i64
  %57 = getelementptr i8, ptr %55, i64 %56
  store ptr %57, ptr %54, align 8, !tbaa !20
  %58 = load i32, ptr %13, align 4, !tbaa !7
  %59 = call ptr @onigenc_unicode_CaseFold_11_lookup(i32 noundef %58)
  store ptr %59, ptr %12, align 8, !tbaa !35
  %60 = icmp ne ptr %59, null
  br i1 %60, label %61, label %111

61:                                               ; preds = %51
  %62 = load ptr, ptr %12, align 8, !tbaa !35
  %63 = getelementptr inbounds nuw %struct.CodePointList3, ptr %62, i32 0, i32 0
  %64 = load i32, ptr %63, align 4, !tbaa !36
  %65 = and i32 %64, 7
  %66 = icmp eq i32 %65, 1
  br i1 %66, label %67, label %78

67:                                               ; preds = %61
  %68 = load ptr, ptr %7, align 8, !tbaa !11
  %69 = getelementptr inbounds nuw %struct.OnigEncodingTypeST, ptr %68, i32 0, i32 7
  %70 = load ptr, ptr %69, align 8, !tbaa !38
  %71 = load ptr, ptr %12, align 8, !tbaa !35
  %72 = getelementptr inbounds nuw %struct.CodePointList3, ptr %71, i32 0, i32 1
  %73 = getelementptr [3 x i32], ptr %72, i64 0, i64 0
  %74 = load i32, ptr %73, align 4, !tbaa !7
  %75 = load ptr, ptr %11, align 8, !tbaa !20
  %76 = load ptr, ptr %7, align 8, !tbaa !11
  %77 = call i32 %70(i32 noundef %74, ptr noundef %75, ptr noundef %76)
  store i32 %77, ptr %6, align 4
  store i32 1, ptr %18, align 4
  br label %127

78:                                               ; preds = %61
  store i32 0, ptr %16, align 4, !tbaa !7
  store i32 0, ptr %14, align 4, !tbaa !7
  br label %79

79:                                               ; preds = %106, %78
  %80 = load i32, ptr %14, align 4, !tbaa !7
  %81 = load ptr, ptr %12, align 8, !tbaa !35
  %82 = getelementptr inbounds nuw %struct.CodePointList3, ptr %81, i32 0, i32 0
  %83 = load i32, ptr %82, align 4, !tbaa !36
  %84 = and i32 %83, 7
  %85 = icmp slt i32 %80, %84
  br i1 %85, label %86, label %109

86:                                               ; preds = %79
  %87 = load ptr, ptr %7, align 8, !tbaa !11
  %88 = getelementptr inbounds nuw %struct.OnigEncodingTypeST, ptr %87, i32 0, i32 7
  %89 = load ptr, ptr %88, align 8, !tbaa !38
  %90 = load ptr, ptr %12, align 8, !tbaa !35
  %91 = getelementptr inbounds nuw %struct.CodePointList3, ptr %90, i32 0, i32 1
  %92 = load i32, ptr %14, align 4, !tbaa !7
  %93 = sext i32 %92 to i64
  %94 = getelementptr [3 x i32], ptr %91, i64 0, i64 %93
  %95 = load i32, ptr %94, align 4, !tbaa !7
  %96 = load ptr, ptr %11, align 8, !tbaa !20
  %97 = load ptr, ptr %7, align 8, !tbaa !11
  %98 = call i32 %89(i32 noundef %95, ptr noundef %96, ptr noundef %97)
  store i32 %98, ptr %15, align 4, !tbaa !7
  %99 = load i32, ptr %15, align 4, !tbaa !7
  %100 = load ptr, ptr %11, align 8, !tbaa !20
  %101 = sext i32 %99 to i64
  %102 = getelementptr i8, ptr %100, i64 %101
  store ptr %102, ptr %11, align 8, !tbaa !20
  %103 = load i32, ptr %15, align 4, !tbaa !7
  %104 = load i32, ptr %16, align 4, !tbaa !7
  %105 = add i32 %104, %103
  store i32 %105, ptr %16, align 4, !tbaa !7
  br label %106

106:                                              ; preds = %86
  %107 = load i32, ptr %14, align 4, !tbaa !7
  %108 = add i32 %107, 1
  store i32 %108, ptr %14, align 4, !tbaa !7
  br label %79, !llvm.loop !39

109:                                              ; preds = %79
  %110 = load i32, ptr %16, align 4, !tbaa !7
  store i32 %110, ptr %6, align 4
  store i32 1, ptr %18, align 4
  br label %127

111:                                              ; preds = %51
  store i32 0, ptr %14, align 4, !tbaa !7
  br label %112

112:                                              ; preds = %122, %111
  %113 = load i32, ptr %14, align 4, !tbaa !7
  %114 = load i32, ptr %15, align 4, !tbaa !7
  %115 = icmp slt i32 %113, %114
  br i1 %115, label %116, label %125

116:                                              ; preds = %112
  %117 = load ptr, ptr %17, align 8, !tbaa !20
  %118 = getelementptr i8, ptr %117, i32 1
  store ptr %118, ptr %17, align 8, !tbaa !20
  %119 = load i8, ptr %117, align 1, !tbaa !24
  %120 = load ptr, ptr %11, align 8, !tbaa !20
  %121 = getelementptr i8, ptr %120, i32 1
  store ptr %121, ptr %11, align 8, !tbaa !20
  store i8 %119, ptr %120, align 1, !tbaa !24
  br label %122

122:                                              ; preds = %116
  %123 = load i32, ptr %14, align 4, !tbaa !7
  %124 = add i32 %123, 1
  store i32 %124, ptr %14, align 4, !tbaa !7
  br label %112, !llvm.loop !40

125:                                              ; preds = %112
  %126 = load i32, ptr %15, align 4, !tbaa !7
  store i32 %126, ptr %6, align 4
  store i32 1, ptr %18, align 4
  br label %127

127:                                              ; preds = %125, %109, %67
  call void @llvm.lifetime.end.p0(i64 8, ptr %17) #5
  call void @llvm.lifetime.end.p0(i64 4, ptr %16) #5
  call void @llvm.lifetime.end.p0(i64 4, ptr %15) #5
  call void @llvm.lifetime.end.p0(i64 4, ptr %14) #5
  call void @llvm.lifetime.end.p0(i64 4, ptr %13) #5
  call void @llvm.lifetime.end.p0(i64 8, ptr %12) #5
  %128 = load i32, ptr %6, align 4
  ret i32 %128
}