; Function Attrs: nounwind sspstrong uwtable
define dso_local i32 @onigenc_unicode_mbc_case_fold(ptr noundef %0, i32 noundef %1, ptr noundef captures(none) %2, ptr noundef %3, ptr noundef %4) local_unnamed_addr #0 {
  %6 = load ptr, ptr %2, align 8, !tbaa !27
  %7 = getelementptr inbounds nuw i8, ptr %0, i64 32
  %8 = load ptr, ptr %7, align 8, !tbaa !16
  %9 = tail call i32 %8(ptr noundef %6, ptr noundef %3, ptr noundef %0) #7
  %10 = getelementptr inbounds nuw i8, ptr %0, i64 16
  %11 = load i32, ptr %10, align 8, !tbaa !20
  %12 = getelementptr inbounds nuw i8, ptr %0, i64 20
  %13 = load i32, ptr %12, align 4, !tbaa !21
  %14 = icmp eq i32 %11, %13
  br i1 %14, label %15, label %17

15:                                               ; preds = %5
  %16 = icmp ult ptr %6, %3
  %spec.select = select i1 %16, i32 %11, i32 0
  br label %19

17:                                               ; preds = %5
  %18 = tail call i32 @onigenc_mbclen(ptr noundef %6, ptr noundef %3, ptr noundef nonnull %0) #7
  br label %19

19:                                               ; preds = %15, %17
  %20 = phi i32 [ %18, %17 ], [ %spec.select, %15 ]
  %21 = load ptr, ptr %2, align 8, !tbaa !27
  %22 = sext i32 %20 to i64
  %23 = getelementptr i8, ptr %21, i64 %22
  store ptr %23, ptr %2, align 8, !tbaa !27
  %24 = add i32 %9, -65
  %or.cond.i = icmp ult i32 %24, 125153
  br i1 %or.cond.i, label %25, label %onigenc_unicode_CaseFold_11_lookup.exit

25:                                               ; preds = %19
  %26 = and i32 %9, 127
  %27 = add nuw nsw i32 %26, 81
  %28 = zext nneg i32 %27 to i64
  %29 = getelementptr [209 x i16], ptr @onigenc_unicode_CaseFold_11_hash.asso_values, i64 0, i64 %28
  %30 = load i16, ptr %29, align 2, !tbaa !7
  %31 = zext i16 %30 to i32
  %32 = lshr i32 %9, 7
  %33 = and i32 %32, 127
  %34 = add nuw nsw i32 %33, 2
  %35 = zext nneg i32 %34 to i64
  %36 = getelementptr [209 x i16], ptr @onigenc_unicode_CaseFold_11_hash.asso_values, i64 0, i64 %35
  %37 = load i16, ptr %36, align 2, !tbaa !7
  %38 = zext i16 %37 to i32
  %39 = add nuw nsw i32 %38, %31
  %40 = lshr i32 %9, 14
  %41 = zext nneg i32 %40 to i64
  %42 = getelementptr [209 x i16], ptr @onigenc_unicode_CaseFold_11_hash.asso_values, i64 0, i64 %41
  %43 = load i16, ptr %42, align 2, !tbaa !7
  %44 = zext i16 %43 to i32
  %45 = add nuw nsw i32 %39, %44
  %46 = icmp samesign ult i32 %45, 3085
  br i1 %46, label %47, label %onigenc_unicode_CaseFold_11_lookup.exit

47:                                               ; preds = %25
  %48 = zext nneg i32 %45 to i64
  %49 = getelementptr [3085 x i16], ptr @onigenc_unicode_CaseFold_11_lookup.wordlist, i64 0, i64 %48
  %50 = load i16, ptr %49, align 2, !tbaa !7
  %51 = icmp sgt i16 %50, -1
  br i1 %51, label %52, label %onigenc_unicode_CaseFold_11_lookup.exit

52:                                               ; preds = %47
  %53 = zext nneg i16 %50 to i64
  %54 = getelementptr [1530 x %struct.CaseFold_11_Type], ptr @CaseFold_11_Table, i64 0, i64 %53
  %55 = load i32, ptr %54, align 4, !tbaa !28
  %.fr.i = freeze i32 %55
  %.not.i.not.i = icmp eq i32 %9, %.fr.i
  br i1 %.not.i.not.i, label %57, label %onigenc_unicode_CaseFold_11_lookup.exit

onigenc_unicode_CaseFold_11_lookup.exit:          ; preds = %25, %47, %52, %19
  %56 = icmp sgt i32 %20, 0
  br i1 %56, label %.lr.ph, label %.loopexit

57:                                               ; preds = %52
  %58 = getelementptr inbounds nuw i8, ptr %54, i64 4
  %59 = load i32, ptr %58, align 4, !tbaa !31
  %60 = and i32 %59, 7
  switch i32 %60, label %.lr.ph58 [
    i32 1, label %63
    i32 0, label %.loopexit
  ]

.lr.ph58:                                         ; preds = %57
  %61 = getelementptr inbounds nuw i8, ptr %0, i64 48
  %62 = getelementptr inbounds nuw i8, ptr %54, i64 8
  %wide.trip.count = zext nneg i32 %60 to i64
  br label %69

63:                                               ; preds = %57
  %64 = getelementptr inbounds nuw i8, ptr %0, i64 48
  %65 = load ptr, ptr %64, align 8, !tbaa !32
  %66 = getelementptr inbounds nuw i8, ptr %54, i64 8
  %67 = load i32, ptr %66, align 4, !tbaa !14
  %68 = tail call i32 %65(i32 noundef %67, ptr noundef %4, ptr noundef nonnull %0) #7
  br label %.loopexit

69:                                               ; preds = %.lr.ph58, %69
  %indvars.iv = phi i64 [ 0, %.lr.ph58 ], [ %indvars.iv.next, %69 ]
  %.04057 = phi i32 [ 0, %.lr.ph58 ], [ %76, %69 ]
  %.04355 = phi ptr [ %4, %.lr.ph58 ], [ %75, %69 ]
  %70 = load ptr, ptr %61, align 8, !tbaa !32
  %71 = getelementptr [3 x i32], ptr %62, i64 0, i64 %indvars.iv
  %72 = load i32, ptr %71, align 4, !tbaa !14
  %73 = tail call i32 %70(i32 noundef %72, ptr noundef %.04355, ptr noundef nonnull %0) #7
  %74 = sext i32 %73 to i64
  %75 = getelementptr i8, ptr %.04355, i64 %74
  %76 = add i32 %73, %.04057
  %indvars.iv.next = add nuw nsw i64 %indvars.iv, 1
  %exitcond61.not = icmp eq i64 %indvars.iv.next, %wide.trip.count
  br i1 %exitcond61.not, label %.loopexit, label %69, !llvm.loop !33

.lr.ph:                                           ; preds = %onigenc_unicode_CaseFold_11_lookup.exit, %.lr.ph
  %.054 = phi ptr [ %77, %.lr.ph ], [ %6, %onigenc_unicode_CaseFold_11_lookup.exit ]
  %.153 = phi i32 [ %80, %.lr.ph ], [ 0, %onigenc_unicode_CaseFold_11_lookup.exit ]
  %.14452 = phi ptr [ %79, %.lr.ph ], [ %4, %onigenc_unicode_CaseFold_11_lookup.exit ]
  %77 = getelementptr i8, ptr %.054, i64 1
  %78 = load i8, ptr %.054, align 1, !tbaa !19
  %79 = getelementptr i8, ptr %.14452, i64 1
  store i8 %78, ptr %.14452, align 1, !tbaa !19
  %80 = add nuw nsw i32 %.153, 1
  %exitcond.not = icmp eq i32 %80, %20
  br i1 %exitcond.not, label %.loopexit, label %.lr.ph, !llvm.loop !34

.loopexit:                                        ; preds = %.lr.ph, %69, %57, %onigenc_unicode_CaseFold_11_lookup.exit, %63
  %.042 = phi i32 [ %68, %63 ], [ %20, %onigenc_unicode_CaseFold_11_lookup.exit ], [ %60, %57 ], [ %76, %69 ], [ %20, %.lr.ph ]
  ret i32 %.042
}